target datalayout = "e-m:e-p270:32:32-p271:32:32-p272:64:64-i64:64-i128:128-f80:128-n8:16:32:64-S128"
target triple = "x86_64-unknown-linux-gnu"

%struct.PCIDevice = type { %struct.DeviceState, i8, i8, ptr, ptr, ptr, ptr, ptr, i32, %struct.PCIReqIDCache, [64 x i8], [7 x %struct.PCIIORegion], %struct.AddressSpace, %struct.MemoryRegion, %struct.MemoryRegion, ptr, ptr, [3 x ptr], i8, i8, i32, i8, i32, ptr, ptr, ptr, ptr, ptr, ptr, %struct.MemoryRegion, %struct.MemoryRegion, %struct.MemoryRegion, ptr, i8, i32, i8, %struct.PCIExpressDevice, ptr, ptr, i32, i8, %struct.MemoryRegion, i32, ptr, ptr, ptr, ptr, ptr, i32 }
%struct.DeviceState = type { %struct.Object, ptr, ptr, i8, i8, i64, ptr, i32, i8, ptr, %struct.NamedGPIOListHead, %struct.NamedClockListHead, %struct.BusStateHead, i32, i32, i32, %struct.ResettableState, ptr, %struct.MemReentrancyGuard }
%struct.Object = type { ptr, ptr, ptr, i32, ptr }
%struct.NamedGPIOListHead = type { ptr }
%struct.NamedClockListHead = type { ptr }
%struct.BusStateHead = type { ptr }
%struct.ResettableState = type { i32, i8, i8 }
%struct.MemReentrancyGuard = type { i8 }
%struct.PCIReqIDCache = type { ptr, i32 }
%struct.PCIIORegion = type { i64, i64, i8, ptr, ptr }
%struct.AddressSpace = type { %struct.rcu_head, ptr, ptr, ptr, i32, i32, ptr, %union.anon, %union.anon.0 }
%struct.rcu_head = type { ptr, ptr }
%union.anon = type { %struct.QTailQLink }
%struct.QTailQLink = type { ptr, ptr }
%union.anon.0 = type { %struct.QTailQLink }
%struct.PCIExpressDevice = type { i8, i8, i8, i16, %struct.PCIEAERLog, i16, i16, i16, %struct.PCIESriovPF, %struct.PCIESriovVF }
%struct.PCIEAERLog = type { i16, i16, ptr }
%struct.PCIESriovPF = type { i16, [7 x i8], ptr, ptr }
%struct.PCIESriovVF = type { ptr, i16 }
%struct.MemoryRegion = type { %struct.Object, i8, i8, i8, i8, i8, i8, i8, i8, i8, i8, ptr, ptr, ptr, ptr, ptr, ptr, i32, i128, i64, ptr, i64, i8, i8, i8, i8, i8, ptr, i64, i32, %union.anon.1, %union.anon.2, %union.anon.3, ptr, i32, ptr, ptr, i8 }
%union.anon.1 = type { %struct.QTailQLink }
%union.anon.2 = type { %struct.QTailQLink }
%union.anon.3 = type { %struct.QTailQLink }
%struct.IVShmemState = type { %struct.PCIDevice, i32, ptr, %struct.CharBackend, i32, i32, i32, %struct.MemoryRegion, ptr, %struct.MemoryRegion, ptr, i32, i32, ptr, i64, i32, i32, ptr }
%struct.CharBackend = type { ptr, ptr, ptr, ptr, ptr, ptr, i32, i32 }

@.str.7 = private unnamed_addr constant [26 x i8] c"../qemu/hw/misc/ivshmem.c\00", align 1
@.str.30 = private unnamed_addr constant [64 x i8] c"size >= 0 && s->msg_buffered_bytes + size <= sizeof(s->msg_buf)\00", align 1
@__PRETTY_FUNCTION__.ivshmem_read = private unnamed_addr constant [48 x i8] c"void ivshmem_read(void *, const uint8_t *, int)\00", align 1

; Function Attrs: nounwind sspstrong uwtable
define internal i64 @le64_to_cpu(i64 noundef %v) #0 {
entry:
  %v.addr = alloca i64, align 8
  store i64 %v, ptr %v.addr, align 8
  %0 = load i64, ptr %v.addr, align 8
  ret i64 %0
}

; Function Attrs: nounwind sspstrong uwtable
define internal void @ivshmem_read(ptr noundef %opaque, ptr noundef %buf, i32 noundef %size) #0 {
entry:
  %opaque.addr = alloca ptr, align 8
  %buf.addr = alloca ptr, align 8
  %size.addr = alloca i32, align 4
  %s = alloca ptr, align 8
  %err = alloca ptr, align 8
  %fd = alloca i32, align 4
  %msg = alloca i64, align 8
  store ptr %opaque, ptr %opaque.addr, align 8
  store ptr %buf, ptr %buf.addr, align 8
  store i32 %size, ptr %size.addr, align 4
  %0 = load ptr, ptr %opaque.addr, align 8
  store ptr %0, ptr %s, align 8
  store ptr null, ptr %err, align 8
  %1 = load i32, ptr %size.addr, align 4
  %cmp = icmp sge i32 %1, 0
  br i1 %cmp, label %land.lhs.true, label %if.else

land.lhs.true:                                    ; preds = %entry
  %2 = load ptr, ptr %s, align 8
  %msg_buffered_bytes = getelementptr inbounds %struct.IVShmemState, ptr %2, i32 0, i32 15
  %3 = load i32, ptr %msg_buffered_bytes, align 16
  %4 = load i32, ptr %size.addr, align 4
  %add = add i32 %3, %4
  %conv = sext i32 %add to i64
  %cmp1 = icmp ule i64 %conv, 8
  br i1 %cmp1, label %if.then, label %if.else

if.then:                                          ; preds = %land.lhs.true
  br label %if.end

if.else:                                          ; preds = %land.lhs.true, %entry
  call void @__assert_fail(ptr noundef @.str.30, ptr noundef @.str.7, i32 noundef 593, ptr noundef @__PRETTY_FUNCTION__.ivshmem_read) #7
  unreachable

if.end:                                           ; preds = %if.then
  %5 = load ptr, ptr %s, align 8
  %msg_buf = getelementptr inbounds %struct.IVShmemState, ptr %5, i32 0, i32 14
  %6 = load ptr, ptr %s, align 8
  %msg_buffered_bytes3 = getelementptr inbounds %struct.IVShmemState, ptr %6, i32 0, i32 15
  %7 = load i32, ptr %msg_buffered_bytes3, align 16
  %idx.ext = sext i32 %7 to i64
  %add.ptr = getelementptr i8, ptr %msg_buf, i64 %idx.ext
  %8 = load ptr, ptr %buf.addr, align 8
  %9 = load i32, ptr %size.addr, align 4
  %conv4 = sext i32 %9 to i64
  call void @llvm.memcpy.p0.p0.i64(ptr align 1 %add.ptr, ptr align 1 %8, i64 %conv4, i1 false)
  %10 = load i32, ptr %size.addr, align 4
  %11 = load ptr, ptr %s, align 8
  %msg_buffered_bytes5 = getelementptr inbounds %struct.IVShmemState, ptr %11, i32 0, i32 15
  %12 = load i32, ptr %msg_buffered_bytes5, align 16
  %add6 = add i32 %12, %10
  store i32 %add6, ptr %msg_buffered_bytes5, align 16
  %13 = load ptr, ptr %s, align 8
  %msg_buffered_bytes7 = getelementptr inbounds %struct.IVShmemState, ptr %13, i32 0, i32 15
  %14 = load i32, ptr %msg_buffered_bytes7, align 16
  %conv8 = sext i32 %14 to i64
  %cmp9 = icmp ult i64 %conv8, 8
  br i1 %cmp9, label %if.then11, label %if.end12

if.then11:                                        ; preds = %if.end
  br label %if.end17

if.end12:                                         ; preds = %if.end
  %15 = load ptr, ptr %s, align 8
  %msg_buf13 = getelementptr inbounds %struct.IVShmemState, ptr %15, i32 0, i32 14
  %16 = load i64, ptr %msg_buf13, align 8
  %call = call i64 @le64_to_cpu(i64 noundef %16)
  store i64 %call, ptr %msg, align 8
  %17 = load ptr, ptr %s, align 8
  %msg_buffered_bytes14 = getelementptr inbounds %struct.IVShmemState, ptr %17, i32 0, i32 15
  store i32 0, ptr %msg_buffered_bytes14, align 16
  %18 = load ptr, ptr %s, align 8
  %server_chr = getelementptr inbounds %struct.IVShmemState, ptr %18, i32 0, i32 3
  %call15 = call i32 @qemu_chr_fe_get_msgfd(ptr noundef %server_chr)
  store i32 %call15, ptr %fd, align 4
  %19 = load ptr, ptr %s, align 8
  %20 = load i64, ptr %msg, align 8
  %21 = load i32, ptr %fd, align 4
  call void @process_msg(ptr noundef %19, i64 noundef %20, i32 noundef %21, ptr noundef %err)
  %22 = load ptr, ptr %err, align 8
  %tobool = icmp ne ptr %22, null
  br i1 %tobool, label %if.then16, label %if.end17

if.then16:                                        ; preds = %if.end12
  %23 = load ptr, ptr %err, align 8
  call void @error_report_err(ptr noundef %23)
  br label %if.end17

if.end17:                                         ; preds = %if.then16, %if.end12, %if.then11
  ret void
}