; Function Attrs: nounwind sspstrong uwtable
define internal void @ivshmem_read(ptr noundef %opaque, ptr noundef readonly captures(none) %buf, i32 noundef %size) #0 {
entry:
  %err = alloca ptr, align 8
  store ptr null, ptr %err, align 8
  %cmp = icmp sgt i32 %size, -1
  br i1 %cmp, label %land.lhs.true, label %if.else

land.lhs.true:                                    ; preds = %entry
  %msg_buffered_bytes = getelementptr inbounds nuw i8, ptr %opaque, i64 3296
  %0 = load i32, ptr %msg_buffered_bytes, align 16
  %add = add i32 %0, %size
  %cmp1 = icmp ult i32 %add, 9
  br i1 %cmp1, label %if.end, label %if.else

if.else:                                          ; preds = %land.lhs.true, %entry
  tail call void @__assert_fail(ptr noundef nonnull @.str.30, ptr noundef nonnull @.str.7, i32 noundef 593, ptr noundef nonnull @__PRETTY_FUNCTION__.ivshmem_read) #12
  unreachable

if.end:                                           ; preds = %land.lhs.true
  %msg_buf = getelementptr inbounds nuw i8, ptr %opaque, i64 3288
  %idx.ext = sext i32 %0 to i64
  %add.ptr = getelementptr i8, ptr %msg_buf, i64 %idx.ext
  %conv4 = zext nneg i32 %size to i64
  tail call void @llvm.memcpy.p0.p0.i64(ptr align 1 %add.ptr, ptr align 1 %buf, i64 %conv4, i1 false)
  %1 = load i32, ptr %msg_buffered_bytes, align 16
  %add6 = add i32 %1, %size
  store i32 %add6, ptr %msg_buffered_bytes, align 16
  %cmp9 = icmp ult i32 %add6, 8
  br i1 %cmp9, label %if.end17, label %if.end12

if.end12:                                         ; preds = %if.end
  %2 = load i64, ptr %msg_buf, align 8
  store i32 0, ptr %msg_buffered_bytes, align 16
  %server_chr = getelementptr inbounds nuw i8, ptr %opaque, i64 2624
  %call15 = tail call i32 @qemu_chr_fe_get_msgfd(ptr noundef nonnull %server_chr) #11
  call fastcc void @process_msg(ptr noundef nonnull %opaque, i64 noundef %2, i32 noundef %call15, ptr noundef %err)
  %3 = load ptr, ptr %err, align 8
  %tobool.not = icmp eq ptr %3, null
  br i1 %tobool.not, label %if.end17, label %if.then16

if.then16:                                        ; preds = %if.end12
  call void @error_report_err(ptr noundef nonnull %3) #11
  br label %if.end17

if.end17:                                         ; preds = %if.end, %if.then16, %if.end12
  ret void
}